; Function Attrs: nounwind uwtable
define internal fastcc void @check_ans(ptr noundef %0, double noundef %1) unnamed_addr #0 {
  %3 = tail call double @atan(double noundef %1) #8, !tbaa !14
  %4 = tail call double @llvm.fabs.f64(double %3)
  %5 = tail call double @llvm.fmuladd.f64(double %4, double 1.000000e-08, double 1.000000e-08)
  %6 = fdiv double 1.000000e+00, %5
  %7 = tail call ptr @N_VGetArrayPointer(ptr noundef %0) #8
  %8 = load double, ptr %7, align 8, !tbaa !4
  %9 = fsub double %8, %3
  %10 = tail call double @llvm.fabs.f64(double %9)
  %11 = fmul double %6, %10
  %12 = fcmp uge double %11, 1.000000e+00
  br i1 %12, label %13, label %16

13:                                               ; preds = %2
  %14 = load ptr, ptr @stdout, align 8, !tbaa !8
  %15 = tail call i32 (ptr, ptr, ...) @fprintf(ptr noundef %14, ptr noundef nonnull @.str.29, double noundef %11) #8
  br label %16

16:                                               ; preds = %13, %2
  ret void
}